target datalayout = "e-m:e-p270:32:32-p271:32:32-p272:64:64-i64:64-i128:128-f80:128-n8:16:32:64-S128"
target triple = "x86_64-pc-linux-gnu"

%"class.icu_77::CalendarAstronomer" = type <{ double, double, double, double, double, %"class.icu_77::CalendarAstronomer::Equatorial", i8, [7 x i8] }>
%"class.icu_77::CalendarAstronomer::Equatorial" = type { double, double }

; Function Attrs: inlinehint mustprogress uwtable
define linkonce_odr noundef double @_ZN6icu_779ClockMath11floorDivideEdd(double noundef %0, double noundef %1) #3 comdat align 2 {
  %3 = alloca double, align 8
  %4 = alloca double, align 8
  store double %0, ptr %3, align 8, !tbaa !15
  store double %1, ptr %4, align 8, !tbaa !15
  %5 = load double, ptr %3, align 8, !tbaa !15
  %6 = load double, ptr %4, align 8, !tbaa !15
  %7 = fdiv double %5, %6
  %8 = call double @uprv_floor_77(double noundef %7)
  ret double %8
}

; Function Attrs: mustprogress nounwind uwtable
define linkonce_odr void @_ZN6icu_7718CalendarAstronomer10Equatorial3setEdd(ptr noundef nonnull align 8 dereferenceable(16) %0, double noundef %1, double noundef %2) #2 comdat align 2 {
  %4 = alloca ptr, align 8
  %5 = alloca double, align 8
  %6 = alloca double, align 8
  store ptr %0, ptr %4, align 8, !tbaa !13
  store double %1, ptr %5, align 8, !tbaa !15
  store double %2, ptr %6, align 8, !tbaa !15
  %7 = load ptr, ptr %4, align 8
  %8 = load double, ptr %5, align 8, !tbaa !15
  %9 = getelementptr inbounds nuw %"class.icu_77::CalendarAstronomer::Equatorial", ptr %7, i32 0, i32 0
  store double %8, ptr %9, align 8, !tbaa !16
  %10 = load double, ptr %6, align 8, !tbaa !15
  %11 = getelementptr inbounds nuw %"class.icu_77::CalendarAstronomer::Equatorial", ptr %7, i32 0, i32 1
  store double %10, ptr %11, align 8, !tbaa !17
  ret void
}

; Function Attrs: mustprogress uwtable
define noundef double @_ZN6icu_7718CalendarAstronomer17eclipticObliquityEv(ptr noundef nonnull align 8 dereferenceable(57) %0) #0 align 2 {
  %2 = alloca ptr, align 8
  %3 = alloca double, align 8
  %4 = alloca double, align 8
  %5 = alloca double, align 8
  store ptr %0, ptr %2, align 8, !tbaa !3
  %6 = load ptr, ptr %2, align 8
  call void @llvm.lifetime.start.p0(i64 8, ptr %3) #10
  store double 0x4142B42C80000000, ptr %3, align 8, !tbaa !15
  call void @llvm.lifetime.start.p0(i64 8, ptr %4) #10
  %7 = call noundef double @_ZN6icu_7718CalendarAstronomer12getJulianDayEv(ptr noundef nonnull align 8 dereferenceable(57) %6)
  %8 = fsub double %7, 0x4142B42C80000000
  %9 = fdiv double %8, 3.652500e+04
  store double %9, ptr %4, align 8, !tbaa !15
  call void @llvm.lifetime.start.p0(i64 8, ptr %5) #10
  %10 = load double, ptr %4, align 8, !tbaa !15
  %11 = call double @llvm.fmuladd.f64(double 0xBF8AA1EDB45C4BE9, double %10, double 0x4037707570C564F9)
  %12 = load double, ptr %4, align 8, !tbaa !15
  %13 = fmul double 0x3E865E9F80F29211, %12
  %14 = load double, ptr %4, align 8, !tbaa !15
  %15 = fneg double %13
  %16 = call double @llvm.fmuladd.f64(double %15, double %14, double %11)
  %17 = load double, ptr %4, align 8, !tbaa !15
  %18 = fmul double 0x3EA0DED40694CE29, %17
  %19 = load double, ptr %4, align 8, !tbaa !15
  %20 = fmul double %18, %19
  %21 = load double, ptr %4, align 8, !tbaa !15
  %22 = call double @llvm.fmuladd.f64(double %20, double %21, double %16)
  store double %22, ptr %5, align 8, !tbaa !15
  %23 = load double, ptr %5, align 8, !tbaa !15
  %24 = fmul double %23, 0x3F91DF46A2529D39
  call void @llvm.lifetime.end.p0(i64 8, ptr %5) #10
  call void @llvm.lifetime.end.p0(i64 8, ptr %4) #10
  call void @llvm.lifetime.end.p0(i64 8, ptr %3) #10
  ret double %24
}

; Function Attrs: inlinehint mustprogress uwtable
define internal noundef double @_ZN6icu_77L9normalizeEdd(double noundef %0, double noundef %1) #3 {
  %3 = alloca double, align 8
  %4 = alloca double, align 8
  store double %0, ptr %3, align 8, !tbaa !15
  store double %1, ptr %4, align 8, !tbaa !15
  %5 = load double, ptr %3, align 8, !tbaa !15
  %6 = load double, ptr %4, align 8, !tbaa !15
  %7 = load double, ptr %3, align 8, !tbaa !15
  %8 = load double, ptr %4, align 8, !tbaa !15
  %9 = call noundef double @_ZN6icu_779ClockMath11floorDivideEdd(double noundef %7, double noundef %8)
  %10 = fneg double %6
  %11 = call double @llvm.fmuladd.f64(double %10, double %9, double %5)
  ret double %11
}

; Function Attrs: inlinehint mustprogress uwtable
define internal noundef signext i8 @_ZL9isINVALIDd(double noundef %0) #3 {
  %2 = alloca double, align 8
  store double %0, ptr %2, align 8, !tbaa !15
  %3 = load double, ptr %2, align 8, !tbaa !15
  %4 = call signext i8 @uprv_isNaN_77(double noundef %3)
  ret i8 %4
}

; Function Attrs: mustprogress uwtable
define noundef nonnull align 8 dereferenceable(16) ptr @_ZN6icu_7718CalendarAstronomer20eclipticToEquatorialERNS0_10EquatorialEdd(ptr noundef nonnull align 8 dereferenceable(57) %0, ptr noundef nonnull align 8 dereferenceable(16) %1, double noundef %2, double noundef %3) #0 align 2 {
  %5 = alloca ptr, align 8
  %6 = alloca ptr, align 8
  %7 = alloca double, align 8
  %8 = alloca double, align 8
  %9 = alloca double, align 8
  %10 = alloca double, align 8
  %11 = alloca double, align 8
  %12 = alloca double, align 8
  %13 = alloca double, align 8
  %14 = alloca double, align 8
  %15 = alloca double, align 8
  %16 = alloca double, align 8
  store ptr %0, ptr %5, align 8, !tbaa !3
  store ptr %1, ptr %6, align 8, !tbaa !13
  store double %2, ptr %7, align 8, !tbaa !15
  store double %3, ptr %8, align 8, !tbaa !15
  %17 = load ptr, ptr %5, align 8
  call void @llvm.lifetime.start.p0(i64 8, ptr %9) #10
  %18 = call noundef double @_ZN6icu_7718CalendarAstronomer17eclipticObliquityEv(ptr noundef nonnull align 8 dereferenceable(57) %17)
  store double %18, ptr %9, align 8, !tbaa !15
  call void @llvm.lifetime.start.p0(i64 8, ptr %10) #10
  %19 = load double, ptr %9, align 8, !tbaa !15
  %20 = call double @sin(double noundef %19) #10, !tbaa !22
  store double %20, ptr %10, align 8, !tbaa !15
  call void @llvm.lifetime.start.p0(i64 8, ptr %11) #10
  %21 = load double, ptr %9, align 8, !tbaa !15
  %22 = call double @cos(double noundef %21) #10, !tbaa !22
  store double %22, ptr %11, align 8, !tbaa !15
  call void @llvm.lifetime.start.p0(i64 8, ptr %12) #10
  %23 = load double, ptr %7, align 8, !tbaa !15
  %24 = call double @sin(double noundef %23) #10, !tbaa !22
  store double %24, ptr %12, align 8, !tbaa !15
  call void @llvm.lifetime.start.p0(i64 8, ptr %13) #10
  %25 = load double, ptr %7, align 8, !tbaa !15
  %26 = call double @cos(double noundef %25) #10, !tbaa !22
  store double %26, ptr %13, align 8, !tbaa !15
  call void @llvm.lifetime.start.p0(i64 8, ptr %14) #10
  %27 = load double, ptr %8, align 8, !tbaa !15
  %28 = call double @sin(double noundef %27) #10, !tbaa !22
  store double %28, ptr %14, align 8, !tbaa !15
  call void @llvm.lifetime.start.p0(i64 8, ptr %15) #10
  %29 = load double, ptr %8, align 8, !tbaa !15
  %30 = call double @cos(double noundef %29) #10, !tbaa !22
  store double %30, ptr %15, align 8, !tbaa !15
  call void @llvm.lifetime.start.p0(i64 8, ptr %16) #10
  %31 = load double, ptr %8, align 8, !tbaa !15
  %32 = call double @tan(double noundef %31) #10, !tbaa !22
  store double %32, ptr %16, align 8, !tbaa !15
  %33 = load ptr, ptr %6, align 8, !tbaa !13
  %34 = load double, ptr %12, align 8, !tbaa !15
  %35 = load double, ptr %11, align 8, !tbaa !15
  %36 = load double, ptr %16, align 8, !tbaa !15
  %37 = load double, ptr %10, align 8, !tbaa !15
  %38 = fmul double %36, %37
  %39 = fneg double %38
  %40 = call double @llvm.fmuladd.f64(double %34, double %35, double %39)
  %41 = load double, ptr %13, align 8, !tbaa !15
  %42 = call double @atan2(double noundef %40, double noundef %41) #10, !tbaa !22
  %43 = load double, ptr %14, align 8, !tbaa !15
  %44 = load double, ptr %11, align 8, !tbaa !15
  %45 = load double, ptr %15, align 8, !tbaa !15
  %46 = load double, ptr %10, align 8, !tbaa !15
  %47 = fmul double %45, %46
  %48 = load double, ptr %12, align 8, !tbaa !15
  %49 = fmul double %47, %48
  %50 = call double @llvm.fmuladd.f64(double %43, double %44, double %49)
  %51 = call double @asin(double noundef %50) #10, !tbaa !22
  call void @_ZN6icu_7718CalendarAstronomer10Equatorial3setEdd(ptr noundef nonnull align 8 dereferenceable(16) %33, double noundef %42, double noundef %51)
  %52 = load ptr, ptr %6, align 8, !tbaa !13
  call void @llvm.lifetime.end.p0(i64 8, ptr %16) #10
  call void @llvm.lifetime.end.p0(i64 8, ptr %15) #10
  call void @llvm.lifetime.end.p0(i64 8, ptr %14) #10
  call void @llvm.lifetime.end.p0(i64 8, ptr %13) #10
  call void @llvm.lifetime.end.p0(i64 8, ptr %12) #10
  call void @llvm.lifetime.end.p0(i64 8, ptr %11) #10
  call void @llvm.lifetime.end.p0(i64 8, ptr %10) #10
  call void @llvm.lifetime.end.p0(i64 8, ptr %9) #10
  ret ptr %52
}

; Function Attrs: inlinehint mustprogress uwtable
define internal noundef double @_ZN6icu_77L7norm2PIEd(double noundef %0) #3 {
  %2 = alloca double, align 8
  store double %0, ptr %2, align 8, !tbaa !15
  %3 = load double, ptr %2, align 8, !tbaa !15
  %4 = call noundef double @_ZN6icu_77L9normalizeEdd(double noundef %3, double noundef 0x401921FB54442D18)
  ret double %4
}

; Function Attrs: mustprogress uwtable
define noundef double @_ZN6icu_7718CalendarAstronomer12getJulianDayEv(ptr noundef nonnull align 8 dereferenceable(57) %0) #0 align 2 {
  %2 = alloca ptr, align 8
  store ptr %0, ptr %2, align 8, !tbaa !3
  %3 = load ptr, ptr %2, align 8
  %4 = getelementptr inbounds nuw %"class.icu_77::CalendarAstronomer", ptr %3, i32 0, i32 1
  %5 = load double, ptr %4, align 8, !tbaa !18
  %6 = call noundef signext i8 @_ZL9isINVALIDd(double noundef %5)
  %7 = icmp ne i8 %6, 0
  br i1 %7, label %8, label %14

8:                                                ; preds = %1
  %9 = getelementptr inbounds nuw %"class.icu_77::CalendarAstronomer", ptr %3, i32 0, i32 0
  %10 = load double, ptr %9, align 8, !tbaa !8
  %11 = fsub double %10, 0xC2E7F907CA644000
  %12 = fdiv double %11, 8.640000e+07
  %13 = getelementptr inbounds nuw %"class.icu_77::CalendarAstronomer", ptr %3, i32 0, i32 1
  store double %12, ptr %13, align 8, !tbaa !18
  br label %14

14:                                               ; preds = %8, %1
  %15 = getelementptr inbounds nuw %"class.icu_77::CalendarAstronomer", ptr %3, i32 0, i32 1
  %16 = load double, ptr %15, align 8, !tbaa !18
  ret double %16
}

; Function Attrs: mustprogress uwtable
define noundef nonnull align 8 dereferenceable(16) ptr @_ZN6icu_7718CalendarAstronomer15getMoonPositionEv(ptr noundef nonnull align 8 dereferenceable(57) %0) #0 align 2 {
  %2 = alloca ptr, align 8
  %3 = alloca double, align 8
  %4 = alloca double, align 8
  %5 = alloca double, align 8
  %6 = alloca double, align 8
  %7 = alloca double, align 8
  %8 = alloca double, align 8
  %9 = alloca double, align 8
  %10 = alloca double, align 8
  %11 = alloca double, align 8
  %12 = alloca double, align 8
  %13 = alloca double, align 8
  %14 = alloca double, align 8
  %15 = alloca double, align 8
  %16 = alloca double, align 8
  store ptr %0, ptr %2, align 8, !tbaa !3
  %17 = load ptr, ptr %2, align 8
  %18 = getelementptr inbounds nuw %"class.icu_77::CalendarAstronomer", ptr %17, i32 0, i32 6
  %19 = load i8, ptr %18, align 8, !tbaa !12
  %20 = sext i8 %19 to i32
  %21 = icmp eq i32 %20, 0
  br i1 %21, label %22, label %118

22:                                               ; preds = %1
  %23 = call noundef double @_ZN6icu_7718CalendarAstronomer15getSunLongitudeEv(ptr noundef nonnull align 8 dereferenceable(57) %17)
  call void @llvm.lifetime.start.p0(i64 8, ptr %3) #10
  %24 = call noundef double @_ZN6icu_7718CalendarAstronomer12getJulianDayEv(ptr noundef nonnull align 8 dereferenceable(57) %17)
  %25 = fsub double %24, 0x4142AD09C0000000
  store double %25, ptr %3, align 8, !tbaa !15
  call void @llvm.lifetime.start.p0(i64 8, ptr %4) #10
  %26 = load double, ptr %3, align 8, !tbaa !15
  %27 = call double @llvm.fmuladd.f64(double 0x3FCD6FB4CCD0BC8D, double %26, double 0x401639A2A09C75E2)
  %28 = call noundef double @_ZN6icu_77L7norm2PIEd(double noundef %27)
  store double %28, ptr %4, align 8, !tbaa !15
  call void @llvm.lifetime.start.p0(i64 8, ptr %5) #10
  %29 = load double, ptr %4, align 8, !tbaa !15
  %30 = load double, ptr %3, align 8, !tbaa !15
  %31 = call double @llvm.fmuladd.f64(double 0xBF5FDB459D100168, double %30, double %29)
  %32 = fsub double %31, 0x3FE44BDB3881627C
  %33 = call noundef double @_ZN6icu_77L7norm2PIEd(double noundef %32)
  store double %33, ptr %5, align 8, !tbaa !15
  call void @llvm.lifetime.start.p0(i64 8, ptr %6) #10
  %34 = load double, ptr %4, align 8, !tbaa !15
  %35 = getelementptr inbounds nuw %"class.icu_77::CalendarAstronomer", ptr %17, i32 0, i32 2
  %36 = load double, ptr %35, align 8, !tbaa !19
  %37 = fsub double %34, %36
  %38 = load double, ptr %5, align 8, !tbaa !15
  %39 = fneg double %38
  %40 = call double @llvm.fmuladd.f64(double 2.000000e+00, double %37, double %39)
  %41 = call double @sin(double noundef %40) #10, !tbaa !22
  %42 = fmul double 0x3F96C471A926A187, %41
  store double %42, ptr %6, align 8, !tbaa !15
  call void @llvm.lifetime.start.p0(i64 8, ptr %7) #10
  %43 = getelementptr inbounds nuw %"class.icu_77::CalendarAstronomer", ptr %17, i32 0, i32 3
  %44 = load double, ptr %43, align 8, !tbaa !20
  %45 = call double @sin(double noundef %44) #10, !tbaa !22
  %46 = fmul double 0x3F6A90B0ABA4FC89, %45
  store double %46, ptr %7, align 8, !tbaa !15
  call void @llvm.lifetime.start.p0(i64 8, ptr %8) #10
  %47 = getelementptr inbounds nuw %"class.icu_77::CalendarAstronomer", ptr %17, i32 0, i32 3
  %48 = load double, ptr %47, align 8, !tbaa !20
  %49 = call double @sin(double noundef %48) #10, !tbaa !22
  %50 = fmul double 0x3F7A736889D66DD0, %49
  store double %50, ptr %8, align 8, !tbaa !15
  %51 = load double, ptr %6, align 8, !tbaa !15
  %52 = load double, ptr %7, align 8, !tbaa !15
  %53 = fsub double %51, %52
  %54 = load double, ptr %8, align 8, !tbaa !15
  %55 = fsub double %53, %54
  %56 = load double, ptr %5, align 8, !tbaa !15
  %57 = fadd double %56, %55
  store double %57, ptr %5, align 8, !tbaa !15
  call void @llvm.lifetime.start.p0(i64 8, ptr %9) #10
  %58 = load double, ptr %5, align 8, !tbaa !15
  %59 = call double @sin(double noundef %58) #10, !tbaa !22
  %60 = fmul double 0x3FBC1905209A88DE, %59
  store double %60, ptr %9, align 8, !tbaa !15
  call void @llvm.lifetime.start.p0(i64 8, ptr %10) #10
  %61 = load double, ptr %5, align 8, !tbaa !15
  %62 = fmul double 2.000000e+00, %61
  %63 = call double @sin(double noundef %62) #10, !tbaa !22
  %64 = fmul double 0x3F6E98DF535623B2, %63
  store double %64, ptr %10, align 8, !tbaa !15
  call void @llvm.lifetime.start.p0(i64 8, ptr %11) #10
  %65 = load double, ptr %4, align 8, !tbaa !15
  %66 = load double, ptr %6, align 8, !tbaa !15
  %67 = fadd double %65, %66
  %68 = load double, ptr %9, align 8, !tbaa !15
  %69 = fadd double %67, %68
  %70 = load double, ptr %7, align 8, !tbaa !15
  %71 = fsub double %69, %70
  %72 = load double, ptr %10, align 8, !tbaa !15
  %73 = fadd double %71, %72
  store double %73, ptr %11, align 8, !tbaa !15
  call void @llvm.lifetime.start.p0(i64 8, ptr %12) #10
  %74 = load double, ptr %11, align 8, !tbaa !15
  %75 = getelementptr inbounds nuw %"class.icu_77::CalendarAstronomer", ptr %17, i32 0, i32 2
  %76 = load double, ptr %75, align 8, !tbaa !19
  %77 = fsub double %74, %76
  %78 = fmul double 2.000000e+00, %77
  %79 = call double @sin(double noundef %78) #10, !tbaa !22
  %80 = fmul double 0x3F8787CEEAB4C1CA, %79
  store double %80, ptr %12, align 8, !tbaa !15
  %81 = load double, ptr %12, align 8, !tbaa !15
  %82 = load double, ptr %11, align 8, !tbaa !15
  %83 = fadd double %82, %81
  store double %83, ptr %11, align 8, !tbaa !15
  call void @llvm.lifetime.start.p0(i64 8, ptr %13) #10
  %84 = load double, ptr %3, align 8, !tbaa !15
  %85 = call double @llvm.fmuladd.f64(double 0xBF4E48EB230F0FE5, double %84, double 0x40163C779EFC0D54)
  %86 = call noundef double @_ZN6icu_77L7norm2PIEd(double noundef %85)
  store double %86, ptr %13, align 8, !tbaa !15
  %87 = getelementptr inbounds nuw %"class.icu_77::CalendarAstronomer", ptr %17, i32 0, i32 3
  %88 = load double, ptr %87, align 8, !tbaa !20
  %89 = call double @sin(double noundef %88) #10, !tbaa !22
  %90 = load double, ptr %13, align 8, !tbaa !15
  %91 = call double @llvm.fmuladd.f64(double 0xBF66E05A695F8191, double %89, double %90)
  store double %91, ptr %13, align 8, !tbaa !15
  call void @llvm.lifetime.start.p0(i64 8, ptr %14) #10
  %92 = load double, ptr %11, align 8, !tbaa !15
  %93 = load double, ptr %13, align 8, !tbaa !15
  %94 = fsub double %92, %93
  %95 = call double @sin(double noundef %94) #10, !tbaa !22
  store double %95, ptr %14, align 8, !tbaa !15
  call void @llvm.lifetime.start.p0(i64 8, ptr %15) #10
  %96 = load double, ptr %11, align 8, !tbaa !15
  %97 = load double, ptr %13, align 8, !tbaa !15
  %98 = fsub double %96, %97
  %99 = call double @cos(double noundef %98) #10, !tbaa !22
  store double %99, ptr %15, align 8, !tbaa !15
  %100 = load double, ptr %14, align 8, !tbaa !15
  %101 = call double @cos(double noundef 0x3FB6FD5E063B1D97) #10, !tbaa !22
  %102 = fmul double %100, %101
  %103 = load double, ptr %15, align 8, !tbaa !15
  %104 = call double @atan2(double noundef %102, double noundef %103) #10, !tbaa !22
  %105 = load double, ptr %13, align 8, !tbaa !15
  %106 = fadd double %104, %105
  %107 = getelementptr inbounds nuw %"class.icu_77::CalendarAstronomer", ptr %17, i32 0, i32 4
  store double %106, ptr %107, align 8, !tbaa !21
  call void @llvm.lifetime.start.p0(i64 8, ptr %16) #10
  %108 = load double, ptr %14, align 8, !tbaa !15
  %109 = call double @sin(double noundef 0x3FB6FD5E063B1D97) #10, !tbaa !22
  %110 = fmul double %108, %109
  %111 = call double @asin(double noundef %110) #10, !tbaa !22
  store double %111, ptr %16, align 8, !tbaa !15
  %112 = getelementptr inbounds nuw %"class.icu_77::CalendarAstronomer", ptr %17, i32 0, i32 5
  %113 = getelementptr inbounds nuw %"class.icu_77::CalendarAstronomer", ptr %17, i32 0, i32 4
  %114 = load double, ptr %113, align 8, !tbaa !21
  %115 = load double, ptr %16, align 8, !tbaa !15
  %116 = call noundef nonnull align 8 dereferenceable(16) ptr @_ZN6icu_7718CalendarAstronomer20eclipticToEquatorialERNS0_10EquatorialEdd(ptr noundef nonnull align 8 dereferenceable(57) %17, ptr noundef nonnull align 8 dereferenceable(16) %112, double noundef %114, double noundef %115)
  %117 = getelementptr inbounds nuw %"class.icu_77::CalendarAstronomer", ptr %17, i32 0, i32 6
  store i8 1, ptr %117, align 8, !tbaa !12
  call void @llvm.lifetime.end.p0(i64 8, ptr %16) #10
  call void @llvm.lifetime.end.p0(i64 8, ptr %15) #10
  call void @llvm.lifetime.end.p0(i64 8, ptr %14) #10
  call void @llvm.lifetime.end.p0(i64 8, ptr %13) #10
  call void @llvm.lifetime.end.p0(i64 8, ptr %12) #10
  call void @llvm.lifetime.end.p0(i64 8, ptr %11) #10
  call void @llvm.lifetime.end.p0(i64 8, ptr %10) #10
  call void @llvm.lifetime.end.p0(i64 8, ptr %9) #10
  call void @llvm.lifetime.end.p0(i64 8, ptr %8) #10
  call void @llvm.lifetime.end.p0(i64 8, ptr %7) #10
  call void @llvm.lifetime.end.p0(i64 8, ptr %6) #10
  call void @llvm.lifetime.end.p0(i64 8, ptr %5) #10
  call void @llvm.lifetime.end.p0(i64 8, ptr %4) #10
  call void @llvm.lifetime.end.p0(i64 8, ptr %3) #10
  br label %118

118:                                              ; preds = %22, %1
  %119 = getelementptr inbounds nuw %"class.icu_77::CalendarAstronomer", ptr %17, i32 0, i32 5
  ret ptr %119
}