; Function Attrs: mustprogress uwtable
define noundef nonnull align 8 dereferenceable(16) ptr @_ZN6icu_7718CalendarAstronomer15getMoonPositionEv(ptr noundef nonnull align 8 dereferenceable(57) %0) local_unnamed_addr #0 align 2 {
  %2 = getelementptr inbounds nuw i8, ptr %0, i64 56
  %3 = load i8, ptr %2, align 8, !tbaa !13
  %4 = icmp eq i8 %3, 0
  br i1 %4, label %5, label %104

5:                                                ; preds = %1
  %6 = tail call noundef double @_ZN6icu_7718CalendarAstronomer15getSunLongitudeEv(ptr noundef nonnull align 8 dereferenceable(57) %0)
  %7 = getelementptr inbounds nuw i8, ptr %0, i64 8
  %8 = load double, ptr %7, align 8, !tbaa !9
  %9 = tail call noundef signext i8 @uprv_isNaN_77(double noundef %8)
  %.not.i = icmp eq i8 %9, 0
  br i1 %.not.i, label %._crit_edge.i, label %10

._crit_edge.i:                                    ; preds = %5
  %.pre.i = load double, ptr %7, align 8, !tbaa !9
  br label %_ZN6icu_7718CalendarAstronomer12getJulianDayEv.exit

10:                                               ; preds = %5
  %11 = load double, ptr %0, align 8, !tbaa !3
  %12 = fadd double %11, 0x42E7F907CA644000
  %13 = fdiv double %12, 8.640000e+07
  store double %13, ptr %7, align 8, !tbaa !9
  br label %_ZN6icu_7718CalendarAstronomer12getJulianDayEv.exit

_ZN6icu_7718CalendarAstronomer12getJulianDayEv.exit: ; preds = %._crit_edge.i, %10
  %14 = phi double [ %.pre.i, %._crit_edge.i ], [ %13, %10 ]
  %15 = fadd double %14, 0xC142AD09C0000000
  %16 = tail call double @llvm.fmuladd.f64(double %15, double 0x3FCD6FB4CCD0BC8D, double 0x401639A2A09C75E2)
  %17 = fdiv double %16, 0x401921FB54442D18
  %18 = tail call noundef double @uprv_floor_77(double noundef %17)
  %19 = tail call noundef double @llvm.fmuladd.f64(double %18, double 0xC01921FB54442D18, double %16)
  %20 = tail call double @llvm.fmuladd.f64(double %15, double 0xBF5FDB459D100168, double %19)
  %21 = fadd double %20, 0xBFE44BDB3881627C
  %22 = fdiv double %21, 0x401921FB54442D18
  %23 = tail call noundef double @uprv_floor_77(double noundef %22)
  %24 = tail call noundef double @llvm.fmuladd.f64(double %23, double 0xC01921FB54442D18, double %21)
  %25 = getelementptr inbounds nuw i8, ptr %0, i64 16
  %26 = load double, ptr %25, align 8, !tbaa !10
  %27 = fsub double %19, %26
  %28 = fneg double %24
  %29 = tail call double @llvm.fmuladd.f64(double %27, double 2.000000e+00, double %28)
  %30 = tail call double @sin(double noundef %29) #16, !tbaa !14
  %31 = fmul double %30, 0x3F96C471A926A187
  %32 = getelementptr inbounds nuw i8, ptr %0, i64 24
  %33 = load double, ptr %32, align 8, !tbaa !11
  %34 = tail call double @sin(double noundef %33) #16, !tbaa !14
  %35 = fmul double %34, 0x3F6A90B0ABA4FC89
  %36 = tail call double @sin(double noundef %33) #16, !tbaa !14
  %37 = fmul double %36, 0x3F7A736889D66DD0
  %38 = fsub double %31, %35
  %39 = fsub double %38, %37
  %40 = fadd double %24, %39
  %41 = tail call double @sin(double noundef %40) #16, !tbaa !14
  %42 = fmul double %41, 0x3FBC1905209A88DE
  %43 = fmul double %40, 2.000000e+00
  %44 = tail call double @sin(double noundef %43) #16, !tbaa !14
  %45 = fmul double %44, 0x3F6E98DF535623B2
  %46 = fadd double %19, %31
  %47 = fadd double %46, %42
  %48 = fsub double %47, %35
  %49 = fadd double %45, %48
  %50 = fsub double %49, %26
  %51 = fmul double %50, 2.000000e+00
  %52 = tail call double @sin(double noundef %51) #16, !tbaa !14
  %53 = fmul double %52, 0x3F8787CEEAB4C1CA
  %54 = fadd double %53, %49
  %55 = tail call double @llvm.fmuladd.f64(double %15, double 0xBF4E48EB230F0FE5, double 0x40163C779EFC0D54)
  %56 = fdiv double %55, 0x401921FB54442D18
  %57 = tail call noundef double @uprv_floor_77(double noundef %56)
  %58 = tail call noundef double @llvm.fmuladd.f64(double %57, double 0xC01921FB54442D18, double %55)
  %59 = load double, ptr %32, align 8, !tbaa !11
  %60 = tail call double @sin(double noundef %59) #16, !tbaa !14
  %61 = tail call double @llvm.fmuladd.f64(double %60, double 0xBF66E05A695F8191, double %58)
  %62 = fsub double %54, %61
  %63 = tail call double @sin(double noundef %62) #16, !tbaa !14
  %64 = tail call double @cos(double noundef %62) #16, !tbaa !14
  %65 = fmul double %63, 0x3FEFDEFD3FC184D3
  %66 = tail call double @atan2(double noundef %65, double noundef %64) #16, !tbaa !14
  %67 = fadd double %61, %66
  %68 = getelementptr inbounds nuw i8, ptr %0, i64 32
  store double %67, ptr %68, align 8, !tbaa !12
  %69 = fmul double %63, 0x3FB6F575B9F2C24F
  %70 = tail call double @asin(double noundef %69) #16, !tbaa !14
  %71 = getelementptr inbounds nuw i8, ptr %0, i64 40
  %72 = load double, ptr %7, align 8, !tbaa !9
  %73 = tail call noundef signext i8 @uprv_isNaN_77(double noundef %72)
  %.not.i.i.i = icmp eq i8 %73, 0
  br i1 %.not.i.i.i, label %._crit_edge.i.i.i, label %74

._crit_edge.i.i.i:                                ; preds = %_ZN6icu_7718CalendarAstronomer12getJulianDayEv.exit
  %.pre.i.i.i = load double, ptr %7, align 8, !tbaa !9
  br label %_ZN6icu_7718CalendarAstronomer20eclipticToEquatorialERNS0_10EquatorialEdd.exit

74:                                               ; preds = %_ZN6icu_7718CalendarAstronomer12getJulianDayEv.exit
  %75 = load double, ptr %0, align 8, !tbaa !3
  %76 = fadd double %75, 0x42E7F907CA644000
  %77 = fdiv double %76, 8.640000e+07
  store double %77, ptr %7, align 8, !tbaa !9
  br label %_ZN6icu_7718CalendarAstronomer20eclipticToEquatorialERNS0_10EquatorialEdd.exit

_ZN6icu_7718CalendarAstronomer20eclipticToEquatorialERNS0_10EquatorialEdd.exit: ; preds = %._crit_edge.i.i.i, %74
  %78 = phi double [ %.pre.i.i.i, %._crit_edge.i.i.i ], [ %77, %74 ]
  %79 = fadd double %78, 0xC142B42C80000000
  %80 = fdiv double %79, 3.652500e+04
  %81 = tail call double @llvm.fmuladd.f64(double %80, double 0xBF8AA1EDB45C4BE9, double 0x4037707570C564F9)
  %82 = fmul double %80, 0xBE865E9F80F29211
  %83 = tail call double @llvm.fmuladd.f64(double %82, double %80, double %81)
  %84 = fmul double %80, 0x3EA0DED40694CE29
  %85 = fmul double %80, %84
  %86 = tail call double @llvm.fmuladd.f64(double %85, double %80, double %83)
  %87 = fmul double %86, 0x3F91DF46A2529D39
  %88 = tail call double @sin(double noundef %87) #16, !tbaa !14
  %89 = tail call double @cos(double noundef %87) #16, !tbaa !14
  %90 = tail call double @sin(double noundef %67) #16, !tbaa !14
  %91 = tail call double @cos(double noundef %67) #16, !tbaa !14
  %92 = tail call double @sin(double noundef %70) #16, !tbaa !14
  %93 = tail call double @cos(double noundef %70) #16, !tbaa !14
  %94 = tail call double @tan(double noundef %70) #16, !tbaa !14
  %95 = fneg double %88
  %96 = fmul double %94, %95
  %97 = tail call double @llvm.fmuladd.f64(double %90, double %89, double %96)
  %98 = tail call double @atan2(double noundef %97, double noundef %91) #16, !tbaa !14
  %99 = fmul double %88, %93
  %100 = fmul double %90, %99
  %101 = tail call double @llvm.fmuladd.f64(double %92, double %89, double %100)
  %102 = tail call double @asin(double noundef %101) #16, !tbaa !14
  store double %98, ptr %71, align 8, !tbaa !16
  %103 = getelementptr inbounds nuw i8, ptr %0, i64 48
  store double %102, ptr %103, align 8, !tbaa !17
  store i8 1, ptr %2, align 8, !tbaa !13
  br label %104

104:                                              ; preds = %_ZN6icu_7718CalendarAstronomer20eclipticToEquatorialERNS0_10EquatorialEdd.exit, %1
  %105 = getelementptr inbounds nuw i8, ptr %0, i64 40
  ret ptr %105
}